; Function Attrs: nounwind uwtable
define range(i32 -173, 2) i32 @wolfSSL_CTX_UnloadCAs(ptr noundef readonly captures(address_is_null) %0) local_unnamed_addr #0 {
  %2 = icmp eq ptr %0, null
  br i1 %2, label %wolfSSL_CertManagerUnloadCAs.exit, label %3

3:                                                ; preds = %1
  %4 = getelementptr inbounds nuw i8, ptr %0, i64 144
  %5 = load ptr, ptr %4, align 8, !tbaa !26
  %.not.i = icmp eq ptr %5, null
  br i1 %.not.i, label %wolfSSL_CertManagerUnloadCAs.exit, label %6

6:                                                ; preds = %3
  %7 = getelementptr inbounds nuw i8, ptr %5, i64 184
  %8 = tail call i32 @wc_LockMutex(ptr noundef nonnull %7) #22
  %.not7.i = icmp eq i32 %8, 0
  br i1 %.not7.i, label %.thread.i, label %wolfSSL_CertManagerUnloadCAs.exit

.thread.i:                                        ; preds = %6
  %9 = getelementptr inbounds nuw i8, ptr %5, i64 88
  %10 = load ptr, ptr %9, align 8, !tbaa !16
  tail call void @FreeSignerTable(ptr noundef nonnull %5, i32 noundef 11, ptr noundef %10) #22
  %11 = tail call i32 @wc_UnLockMutex(ptr noundef nonnull %7) #22
  br label %wolfSSL_CertManagerUnloadCAs.exit

wolfSSL_CertManagerUnloadCAs.exit:                ; preds = %.thread.i, %6, %3, %1
  %.0 = phi i32 [ -173, %1 ], [ 1, %.thread.i ], [ -106, %6 ], [ -173, %3 ]
  ret i32 %.0
}